target datalayout = "e-m:e-p270:32:32-p271:32:32-p272:64:64-i64:64-i128:128-f80:128-n8:16:32:64-S128"
target triple = "x86_64-pc-linux-gnu"

%struct.pmix_class_t = type { ptr, ptr, ptr, ptr, i32, i32, ptr, ptr, i64 }
%struct.pmix_list_t = type { %struct.pmix_object_t, %struct.pmix_list_item_t, i64 }
%struct.pmix_object_t = type { %union.pthread_mutex_t, ptr, i32, %struct.pmix_tma }
%union.pthread_mutex_t = type { %struct.__pthread_mutex_s }
%struct.__pthread_mutex_s = type { i32, i32, i32, i32, i32, i16, i16, %struct.__pthread_internal_list }
%struct.__pthread_internal_list = type { ptr, ptr }
%struct.pmix_tma = type { ptr, ptr, ptr, ptr, ptr, ptr, ptr, ptr }
%struct.pmix_list_item_t = type { %struct.pmix_object_t, ptr, ptr, i32 }
%struct.pmix_value = type { i16, %union.anon }
%union.anon = type { %struct.pmix_envar_t }
%struct.pmix_envar_t = type { ptr, ptr, i8 }
%struct.pmix_infolist_t = type { %struct.pmix_list_item_t, %struct.pmix_info }
%struct.pmix_info = type { [512 x i8], i32, %struct.pmix_value }

@pmix_infolist_t_class = external global %struct.pmix_class_t, align 8
@pmix_class_init_epoch = external global i32, align 4

; Function Attrs: inlinehint nounwind uwtable
define internal void @pmix_obj_run_constructors(ptr noundef %0) #8 {
  %2 = alloca ptr, align 8
  %3 = alloca ptr, align 8
  store ptr %0, ptr %2, align 8, !tbaa !119
  call void @llvm.lifetime.start.p0(i64 8, ptr %3) #15
  %4 = load ptr, ptr %2, align 8, !tbaa !119
  %5 = getelementptr inbounds nuw %struct.pmix_object_t, ptr %4, i32 0, i32 1
  %6 = load ptr, ptr %5, align 8, !tbaa !122
  %7 = getelementptr inbounds nuw %struct.pmix_class_t, ptr %6, i32 0, i32 6
  %8 = load ptr, ptr %7, align 8, !tbaa !334
  store ptr %8, ptr %3, align 8, !tbaa !8
  br label %9

9:                                                ; preds = %13, %1
  %10 = load ptr, ptr %3, align 8, !tbaa !8
  %11 = load ptr, ptr %10, align 8, !tbaa !8
  %12 = icmp ne ptr null, %11
  br i1 %12, label %13, label %19

13:                                               ; preds = %9
  %14 = load ptr, ptr %3, align 8, !tbaa !8
  %15 = load ptr, ptr %14, align 8, !tbaa !8
  %16 = load ptr, ptr %2, align 8, !tbaa !119
  call void %15(ptr noundef %16)
  %17 = load ptr, ptr %3, align 8, !tbaa !8
  %18 = getelementptr inbounds nuw ptr, ptr %17, i32 1
  store ptr %18, ptr %3, align 8, !tbaa !8
  br label %9, !llvm.loop !335

19:                                               ; preds = %9
  call void @llvm.lifetime.end.p0(i64 8, ptr %3) #15
  ret void
}

; Function Attrs: inlinehint nounwind uwtable
define internal ptr @pmix_tma_malloc(ptr noundef %0, i64 noundef %1) #8 {
  %3 = alloca ptr, align 8
  %4 = alloca ptr, align 8
  %5 = alloca i64, align 8
  store ptr %0, ptr %4, align 8, !tbaa !66
  store i64 %1, ptr %5, align 8, !tbaa !58
  %6 = load ptr, ptr %4, align 8, !tbaa !66
  %7 = icmp ne ptr null, %6
  br i1 %7, label %8, label %15

8:                                                ; preds = %2
  %9 = load ptr, ptr %4, align 8, !tbaa !66
  %10 = getelementptr inbounds nuw %struct.pmix_tma, ptr %9, i32 0, i32 0
  %11 = load ptr, ptr %10, align 8, !tbaa !265
  %12 = load ptr, ptr %4, align 8, !tbaa !66
  %13 = load i64, ptr %5, align 8, !tbaa !58
  %14 = call ptr %11(ptr noundef %12, i64 noundef %13)
  store ptr %14, ptr %3, align 8
  br label %18

15:                                               ; preds = %2
  %16 = load i64, ptr %5, align 8, !tbaa !58
  %17 = call noalias ptr @malloc(i64 noundef %16) #16
  store ptr %17, ptr %3, align 8
  br label %18

18:                                               ; preds = %15, %8
  %19 = load ptr, ptr %3, align 8
  ret ptr %19
}

; Function Attrs: inlinehint nounwind uwtable
define internal void @_pmix_list_append(ptr noundef %0, ptr noundef %1) #8 {
  %3 = alloca ptr, align 8
  %4 = alloca ptr, align 8
  %5 = alloca ptr, align 8
  store ptr %0, ptr %3, align 8, !tbaa !114
  store ptr %1, ptr %4, align 8, !tbaa !132
  call void @llvm.lifetime.start.p0(i64 8, ptr %5) #15
  %6 = load ptr, ptr %3, align 8, !tbaa !114
  %7 = getelementptr inbounds nuw %struct.pmix_list_t, ptr %6, i32 0, i32 1
  store ptr %7, ptr %5, align 8, !tbaa !132
  %8 = load ptr, ptr %5, align 8, !tbaa !132
  %9 = getelementptr inbounds nuw %struct.pmix_list_item_t, ptr %8, i32 0, i32 2
  %10 = load ptr, ptr %9, align 8, !tbaa !133
  %11 = load ptr, ptr %4, align 8, !tbaa !132
  %12 = getelementptr inbounds nuw %struct.pmix_list_item_t, ptr %11, i32 0, i32 2
  store ptr %10, ptr %12, align 8, !tbaa !133
  %13 = load ptr, ptr %4, align 8, !tbaa !132
  %14 = load ptr, ptr %5, align 8, !tbaa !132
  %15 = getelementptr inbounds nuw %struct.pmix_list_item_t, ptr %14, i32 0, i32 2
  %16 = load ptr, ptr %15, align 8, !tbaa !133
  %17 = getelementptr inbounds nuw %struct.pmix_list_item_t, ptr %16, i32 0, i32 1
  store volatile ptr %13, ptr %17, align 8, !tbaa !134
  %18 = load ptr, ptr %5, align 8, !tbaa !132
  %19 = load ptr, ptr %4, align 8, !tbaa !132
  %20 = getelementptr inbounds nuw %struct.pmix_list_item_t, ptr %19, i32 0, i32 1
  store ptr %18, ptr %20, align 8, !tbaa !134
  %21 = load ptr, ptr %4, align 8, !tbaa !132
  %22 = load ptr, ptr %5, align 8, !tbaa !132
  %23 = getelementptr inbounds nuw %struct.pmix_list_item_t, ptr %22, i32 0, i32 2
  store ptr %21, ptr %23, align 8, !tbaa !133
  %24 = load ptr, ptr %3, align 8, !tbaa !114
  %25 = getelementptr inbounds nuw %struct.pmix_list_t, ptr %24, i32 0, i32 2
  %26 = load volatile i64, ptr %25, align 8, !tbaa !135
  %27 = add i64 %26, 1
  store volatile i64 %27, ptr %25, align 8, !tbaa !135
  call void @llvm.lifetime.end.p0(i64 8, ptr %5) #15
  ret void
}

; Function Attrs: inlinehint nounwind uwtable
define internal ptr @pmix_obj_new_tma(ptr noundef %0, ptr noundef %1) #8 {
  %3 = alloca ptr, align 8
  %4 = alloca ptr, align 8
  %5 = alloca ptr, align 8
  store ptr %0, ptr %3, align 8, !tbaa !116
  store ptr %1, ptr %4, align 8, !tbaa !66
  call void @llvm.lifetime.start.p0(i64 8, ptr %5) #15
  %6 = load ptr, ptr %4, align 8, !tbaa !66
  %7 = load ptr, ptr %3, align 8, !tbaa !116
  %8 = getelementptr inbounds nuw %struct.pmix_class_t, ptr %7, i32 0, i32 8
  %9 = load i64, ptr %8, align 8, !tbaa !117
  %10 = call ptr @pmix_tma_malloc(ptr noundef %6, i64 noundef %9)
  store ptr %10, ptr %5, align 8, !tbaa !119
  %11 = load i32, ptr @pmix_class_init_epoch, align 4, !tbaa !31
  %12 = load ptr, ptr %3, align 8, !tbaa !116
  %13 = getelementptr inbounds nuw %struct.pmix_class_t, ptr %12, i32 0, i32 4
  %14 = load i32, ptr %13, align 8, !tbaa !121
  %15 = icmp ne i32 %11, %14
  br i1 %15, label %16, label %18

16:                                               ; preds = %2
  %17 = load ptr, ptr %3, align 8, !tbaa !116
  call void @pmix_class_initialize(ptr noundef %17)
  br label %18

18:                                               ; preds = %16, %2
  %19 = load ptr, ptr %5, align 8, !tbaa !119
  %20 = icmp ne ptr null, %19
  br i1 %20, label %21, label %60

21:                                               ; preds = %18
  %22 = load ptr, ptr %5, align 8, !tbaa !119
  %23 = getelementptr inbounds nuw %struct.pmix_object_t, ptr %22, i32 0, i32 0
  %24 = call i32 @pthread_mutex_init(ptr noundef %23, ptr noundef null) #15
  %25 = load ptr, ptr %3, align 8, !tbaa !116
  %26 = load ptr, ptr %5, align 8, !tbaa !119
  %27 = getelementptr inbounds nuw %struct.pmix_object_t, ptr %26, i32 0, i32 1
  store ptr %25, ptr %27, align 8, !tbaa !122
  %28 = load ptr, ptr %5, align 8, !tbaa !119
  %29 = getelementptr inbounds nuw %struct.pmix_object_t, ptr %28, i32 0, i32 2
  store i32 1, ptr %29, align 8, !tbaa !123
  %30 = load ptr, ptr %4, align 8, !tbaa !66
  %31 = icmp eq ptr null, %30
  br i1 %31, label %32, label %54

32:                                               ; preds = %21
  %33 = load ptr, ptr %5, align 8, !tbaa !119
  %34 = getelementptr inbounds nuw %struct.pmix_object_t, ptr %33, i32 0, i32 3
  %35 = getelementptr inbounds nuw %struct.pmix_tma, ptr %34, i32 0, i32 0
  store ptr null, ptr %35, align 8, !tbaa !124
  %36 = load ptr, ptr %5, align 8, !tbaa !119
  %37 = getelementptr inbounds nuw %struct.pmix_object_t, ptr %36, i32 0, i32 3
  %38 = getelementptr inbounds nuw %struct.pmix_tma, ptr %37, i32 0, i32 1
  store ptr null, ptr %38, align 8, !tbaa !125
  %39 = load ptr, ptr %5, align 8, !tbaa !119
  %40 = getelementptr inbounds nuw %struct.pmix_object_t, ptr %39, i32 0, i32 3
  %41 = getelementptr inbounds nuw %struct.pmix_tma, ptr %40, i32 0, i32 2
  store ptr null, ptr %41, align 8, !tbaa !126
  %42 = load ptr, ptr %5, align 8, !tbaa !119
  %43 = getelementptr inbounds nuw %struct.pmix_object_t, ptr %42, i32 0, i32 3
  %44 = getelementptr inbounds nuw %struct.pmix_tma, ptr %43, i32 0, i32 3
  store ptr null, ptr %44, align 8, !tbaa !127
  %45 = load ptr, ptr %5, align 8, !tbaa !119
  %46 = getelementptr inbounds nuw %struct.pmix_object_t, ptr %45, i32 0, i32 3
  %47 = getelementptr inbounds nuw %struct.pmix_tma, ptr %46, i32 0, i32 5
  store ptr null, ptr %47, align 8, !tbaa !128
  %48 = load ptr, ptr %5, align 8, !tbaa !119
  %49 = getelementptr inbounds nuw %struct.pmix_object_t, ptr %48, i32 0, i32 3
  %50 = getelementptr inbounds nuw %struct.pmix_tma, ptr %49, i32 0, i32 6
  store ptr null, ptr %50, align 8, !tbaa !129
  %51 = load ptr, ptr %5, align 8, !tbaa !119
  %52 = getelementptr inbounds nuw %struct.pmix_object_t, ptr %51, i32 0, i32 3
  %53 = getelementptr inbounds nuw %struct.pmix_tma, ptr %52, i32 0, i32 7
  store ptr null, ptr %53, align 8, !tbaa !130
  br label %58

54:                                               ; preds = %21
  %55 = load ptr, ptr %5, align 8, !tbaa !119
  %56 = getelementptr inbounds nuw %struct.pmix_object_t, ptr %55, i32 0, i32 3
  %57 = load ptr, ptr %4, align 8, !tbaa !66
  call void @llvm.memcpy.p0.p0.i64(ptr align 8 %56, ptr align 8 %57, i64 64, i1 false), !tbaa.struct !131
  br label %58

58:                                               ; preds = %54, %32
  %59 = load ptr, ptr %5, align 8, !tbaa !119
  call void @pmix_obj_run_constructors(ptr noundef %59)
  br label %60

60:                                               ; preds = %58, %18
  %61 = load ptr, ptr %5, align 8, !tbaa !119
  call void @llvm.lifetime.end.p0(i64 8, ptr %5) #15
  ret ptr %61
}

; Function Attrs: nounwind uwtable
define i32 @PMIx_Info_list_add(ptr noundef %0, ptr noundef %1, ptr noundef %2, i16 noundef zeroext %3) #0 {
  %5 = alloca i32, align 4
  %6 = alloca ptr, align 8
  %7 = alloca ptr, align 8
  %8 = alloca ptr, align 8
  %9 = alloca i16, align 2
  %10 = alloca ptr, align 8
  %11 = alloca ptr, align 8
  %12 = alloca i32, align 4
  store ptr %0, ptr %6, align 8, !tbaa !8
  store ptr %1, ptr %7, align 8, !tbaa !14
  store ptr %2, ptr %8, align 8, !tbaa !8
  store i16 %3, ptr %9, align 2, !tbaa !9
  call void @llvm.lifetime.start.p0(i64 8, ptr %10) #15
  %13 = load ptr, ptr %6, align 8, !tbaa !8
  store ptr %13, ptr %10, align 8, !tbaa !114
  call void @llvm.lifetime.start.p0(i64 8, ptr %11) #15
  %14 = call ptr @pmix_obj_new_tma(ptr noundef @pmix_infolist_t_class, ptr noundef null)
  store ptr %14, ptr %11, align 8, !tbaa !8
  %15 = load ptr, ptr %11, align 8, !tbaa !8
  %16 = icmp eq ptr null, %15
  br i1 %16, label %17, label %18

17:                                               ; preds = %4
  store i32 -32, ptr %5, align 4
  store i32 1, ptr %12, align 4
  br label %28

18:                                               ; preds = %4
  %19 = load ptr, ptr %11, align 8, !tbaa !8
  %20 = getelementptr inbounds nuw %struct.pmix_infolist_t, ptr %19, i32 0, i32 1
  %21 = load ptr, ptr %7, align 8, !tbaa !14
  %22 = load ptr, ptr %8, align 8, !tbaa !8
  %23 = load i16, ptr %9, align 2, !tbaa !9
  %24 = call i32 @PMIx_Info_load(ptr noundef %20, ptr noundef %21, ptr noundef %22, i16 noundef zeroext %23)
  %25 = load ptr, ptr %10, align 8, !tbaa !114
  %26 = load ptr, ptr %11, align 8, !tbaa !8
  %27 = getelementptr inbounds nuw %struct.pmix_infolist_t, ptr %26, i32 0, i32 0
  call void @_pmix_list_append(ptr noundef %25, ptr noundef %27)
  store i32 0, ptr %5, align 4
  store i32 1, ptr %12, align 4
  br label %28

28:                                               ; preds = %18, %17
  call void @llvm.lifetime.end.p0(i64 8, ptr %11) #15
  call void @llvm.lifetime.end.p0(i64 8, ptr %10) #15
  %29 = load i32, ptr %5, align 4
  ret i32 %29
}