; Function Attrs: nounwind uwtable
define range(i32 -32, 1) i32 @PMIx_Info_list_add(ptr noundef %0, ptr noundef %1, ptr noundef %2, i16 noundef zeroext %3) local_unnamed_addr #0 {
  %5 = load i64, ptr getelementptr inbounds nuw (i8, ptr @pmix_infolist_t_class, i64 56), align 8, !tbaa !142
  %6 = tail call noalias noundef ptr @malloc(i64 noundef %5) #25
  %7 = load i32, ptr @pmix_class_init_epoch, align 4, !tbaa !139
  %8 = load i32, ptr getelementptr inbounds nuw (i8, ptr @pmix_infolist_t_class, i64 32), align 8, !tbaa !143
  %.not.i = icmp eq i32 %7, %8
  br i1 %.not.i, label %10, label %9

9:                                                ; preds = %4
  tail call void @pmix_class_initialize(ptr noundef nonnull @pmix_infolist_t_class) #24
  br label %10

10:                                               ; preds = %9, %4
  %.not22.i = icmp eq ptr %6, null
  br i1 %.not22.i, label %pmix_obj_new_tma.exit, label %11

11:                                               ; preds = %10
  %12 = tail call i32 @pthread_mutex_init(ptr noundef nonnull %6, ptr noundef null) #24
  %13 = getelementptr inbounds nuw i8, ptr %6, i64 40
  store ptr @pmix_infolist_t_class, ptr %13, align 8, !tbaa !46
  %14 = getelementptr inbounds nuw i8, ptr %6, i64 48
  store i32 1, ptr %14, align 8, !tbaa !144
  %15 = getelementptr inbounds nuw i8, ptr %6, i64 56
  %16 = getelementptr inbounds nuw i8, ptr %6, i64 96
  tail call void @llvm.memset.p0.i64(ptr noundef nonnull align 8 dereferenceable(32) %15, i8 0, i64 32, i1 false)
  tail call void @llvm.memset.p0.i64(ptr noundef nonnull align 8 dereferenceable(24) %16, i8 0, i64 24, i1 false)
  %17 = load ptr, ptr getelementptr inbounds nuw (i8, ptr @pmix_infolist_t_class, i64 40), align 8, !tbaa !145
  %18 = load ptr, ptr %17, align 8, !tbaa !26
  %.not6.i.i = icmp eq ptr %18, null
  br i1 %.not6.i.i, label %.loopexit, label %.lr.ph.i.i

.lr.ph.i.i:                                       ; preds = %11, %.lr.ph.i.i
  %19 = phi ptr [ %21, %.lr.ph.i.i ], [ %18, %11 ]
  %.07.i.i = phi ptr [ %20, %.lr.ph.i.i ], [ %17, %11 ]
  tail call void %19(ptr noundef nonnull %6) #24
  %20 = getelementptr inbounds nuw i8, ptr %.07.i.i, i64 8
  %21 = load ptr, ptr %20, align 8, !tbaa !26
  %.not.i.i = icmp eq ptr %21, null
  br i1 %.not.i.i, label %.loopexit, label %.lr.ph.i.i, !llvm.loop !146

.loopexit:                                        ; preds = %.lr.ph.i.i, %11
  %22 = getelementptr inbounds nuw i8, ptr %6, i64 144
  %23 = tail call i32 @PMIx_Info_load(ptr noundef nonnull %22, ptr noundef %1, ptr noundef %2, i16 noundef zeroext %3) #24
  %24 = getelementptr inbounds nuw i8, ptr %0, i64 120
  %25 = getelementptr inbounds nuw i8, ptr %0, i64 248
  %26 = load ptr, ptr %25, align 8, !tbaa !147
  %27 = getelementptr inbounds nuw i8, ptr %6, i64 128
  store ptr %26, ptr %27, align 8, !tbaa !147
  %28 = getelementptr inbounds nuw i8, ptr %26, i64 120
  store volatile ptr %6, ptr %28, align 8, !tbaa !148
  %29 = getelementptr inbounds nuw i8, ptr %6, i64 120
  store ptr %24, ptr %29, align 8, !tbaa !148
  store ptr %6, ptr %25, align 8, !tbaa !147
  %30 = getelementptr inbounds nuw i8, ptr %0, i64 264
  %31 = load volatile i64, ptr %30, align 8, !tbaa !149
  %32 = add i64 %31, 1
  store volatile i64 %32, ptr %30, align 8, !tbaa !149
  br label %pmix_obj_new_tma.exit

pmix_obj_new_tma.exit:                            ; preds = %10, %.loopexit
  %.0 = phi i32 [ 0, %.loopexit ], [ -32, %10 ]
  ret i32 %.0
}